; Function Attrs: mustprogress uwtable
define void @_ZN8facebook5velox5cache10CacheShard15freeAllocationsERSt6vectorINS0_6memory10AllocationESaIS5_EE(ptr nocapture noundef nonnull readonly align 8 dereferenceable(280) %this, ptr nocapture noundef nonnull align 8 dereferenceable(24) %allocations) local_unnamed_addr #3 align 2 personality ptr @__gxx_personality_v0 {
entry:
  %0 = load ptr, ptr %allocations, align 8
  %_M_finish.i = getelementptr inbounds i8, ptr %allocations, i64 8
  %1 = load ptr, ptr %_M_finish.i, align 8
  %cmp.i.not5 = icmp eq ptr %0, %1
  br i1 %cmp.i.not5, label %_ZNSt6vectorIN8facebook5velox6memory10AllocationESaIS3_EE5clearEv.exit, label %for.body

for.body:                                         ; preds = %entry, %for.body
  %__begin2.sroa.0.06 = phi ptr [ %incdec.ptr.i, %for.body ], [ %0, %entry ]
  %2 = load ptr, ptr %this, align 8
  %vtable = load ptr, ptr %2, align 8
  %vfn = getelementptr inbounds i8, ptr %vtable, i64 32
  %3 = load ptr, ptr %vfn, align 8
  %call6 = tail call noundef ptr %3(ptr noundef nonnull align 8 dereferenceable(300) %2)
  %vtable7 = load ptr, ptr %call6, align 8
  %vfn8 = getelementptr inbounds i8, ptr %vtable7, i64 40
  %4 = load ptr, ptr %vfn8, align 8
  %call9 = tail call noundef i64 %4(ptr noundef nonnull align 8 dereferenceable(880) %call6, ptr noundef nonnull align 8 dereferenceable(36) %__begin2.sroa.0.06)
  %incdec.ptr.i = getelementptr inbounds i8, ptr %__begin2.sroa.0.06, i64 40
  %cmp.i.not = icmp eq ptr %incdec.ptr.i, %1
  br i1 %cmp.i.not, label %for.end, label %for.body

for.end:                                          ; preds = %for.body
  %.pre = load ptr, ptr %allocations, align 8
  %.pre7 = load ptr, ptr %_M_finish.i, align 8
  %tobool.not.i.i = icmp eq ptr %.pre7, %.pre
  br i1 %tobool.not.i.i, label %_ZNSt6vectorIN8facebook5velox6memory10AllocationESaIS3_EE5clearEv.exit, label %for.body.i.i.i.i.i

for.body.i.i.i.i.i:                               ; preds = %for.end, %for.body.i.i.i.i.i
  %__first.addr.04.i.i.i.i.i = phi ptr [ %incdec.ptr.i.i.i.i.i, %for.body.i.i.i.i.i ], [ %.pre, %for.end ]
  tail call void @_ZN8facebook5velox6memory10AllocationD1Ev(ptr noundef nonnull align 8 dereferenceable(36) %__first.addr.04.i.i.i.i.i) #21
  %incdec.ptr.i.i.i.i.i = getelementptr inbounds i8, ptr %__first.addr.04.i.i.i.i.i, i64 40
  %cmp.not.i.i.i.i.i = icmp eq ptr %incdec.ptr.i.i.i.i.i, %.pre7
  br i1 %cmp.not.i.i.i.i.i, label %invoke.cont.i.i, label %for.body.i.i.i.i.i, !llvm.loop !72

invoke.cont.i.i:                                  ; preds = %for.body.i.i.i.i.i
  store ptr %.pre, ptr %_M_finish.i, align 8
  br label %_ZNSt6vectorIN8facebook5velox6memory10AllocationESaIS3_EE5clearEv.exit

_ZNSt6vectorIN8facebook5velox6memory10AllocationESaIS3_EE5clearEv.exit: ; preds = %entry, %for.end, %invoke.cont.i.i
  ret void
}